target datalayout = "e-m:e-p270:32:32-p271:32:32-p272:64:64-i64:64-i128:128-f80:128-n8:16:32:64-S128"
target triple = "x86_64-pc-linux-gnu"

%"class.base::BasicStringPiece" = type { ptr, i64 }

; Function Attrs: mustprogress nounwind uwtable
define weak_odr noundef ptr @_ZNK4base16BasicStringPieceINSt7__cxx1112basic_stringIcSt11char_traitsIcESaIcEEEE4dataEv(ptr noundef nonnull align 8 dereferenceable(16) %0) #0 comdat align 2 {
  %2 = alloca ptr, align 8
  store ptr %0, ptr %2, align 8, !tbaa !3
  %3 = load ptr, ptr %2, align 8
  %4 = getelementptr inbounds nuw %"class.base::BasicStringPiece", ptr %3, i32 0, i32 0
  %5 = load ptr, ptr %4, align 8, !tbaa !8
  ret ptr %5
}

; Function Attrs: inlinehint mustprogress nounwind uwtable
define linkonce_odr noundef nonnull align 8 dereferenceable(8) ptr @_ZSt3minImERKT_S2_S2_(ptr noundef nonnull align 8 dereferenceable(8) %0, ptr noundef nonnull align 8 dereferenceable(8) %1) #7 comdat {
  %3 = alloca ptr, align 8
  %4 = alloca ptr, align 8
  %5 = alloca ptr, align 8
  store ptr %0, ptr %4, align 8, !tbaa !85
  store ptr %1, ptr %5, align 8, !tbaa !85
  %6 = load ptr, ptr %5, align 8, !tbaa !85
  %7 = load i64, ptr %6, align 8, !tbaa !19
  %8 = load ptr, ptr %4, align 8, !tbaa !85
  %9 = load i64, ptr %8, align 8, !tbaa !19
  %10 = icmp ult i64 %7, %9
  br i1 %10, label %11, label %13

11:                                               ; preds = %2
  %12 = load ptr, ptr %5, align 8, !tbaa !85
  store ptr %12, ptr %3, align 8
  br label %15

13:                                               ; preds = %2
  %14 = load ptr, ptr %4, align 8, !tbaa !85
  store ptr %14, ptr %3, align 8
  br label %15

15:                                               ; preds = %13, %11
  %16 = load ptr, ptr %3, align 8
  ret ptr %16
}

; Function Attrs: mustprogress nounwind uwtable
define weak_odr noundef i64 @_ZNK4base16BasicStringPieceINSt7__cxx1112basic_stringIcSt11char_traitsIcESaIcEEEE4sizeEv(ptr noundef nonnull align 8 dereferenceable(16) %0) #0 comdat align 2 {
  %2 = alloca ptr, align 8
  store ptr %0, ptr %2, align 8, !tbaa !3
  %3 = load ptr, ptr %2, align 8
  %4 = getelementptr inbounds nuw %"class.base::BasicStringPiece", ptr %3, i32 0, i32 1
  %5 = load i64, ptr %4, align 8, !tbaa !12
  ret i64 %5
}

; Function Attrs: mustprogress nounwind uwtable
define linkonce_odr noundef i64 @_ZN4base8internal17find_last_not_ofTINSt7__cxx1112basic_stringIcSt11char_traitsIcESaIcEEEEEmRKNS_16BasicStringPieceIT_EENS9_10value_typeEm(ptr noundef nonnull align 8 dereferenceable(16) %0, i8 noundef signext %1, i64 noundef %2) #0 comdat {
  %4 = alloca i64, align 8
  %5 = alloca ptr, align 8
  %6 = alloca i8, align 1
  %7 = alloca i64, align 8
  %8 = alloca i64, align 8
  %9 = alloca i64, align 8
  %10 = alloca i32, align 4
  store ptr %0, ptr %5, align 8, !tbaa !3
  store i8 %1, ptr %6, align 1, !tbaa !25
  store i64 %2, ptr %7, align 8, !tbaa !19
  %11 = load ptr, ptr %5, align 8, !tbaa !3
  %12 = call noundef i64 @_ZNK4base16BasicStringPieceINSt7__cxx1112basic_stringIcSt11char_traitsIcESaIcEEEE4sizeEv(ptr noundef nonnull align 8 dereferenceable(16) %11)
  %13 = icmp eq i64 %12, 0
  br i1 %13, label %14, label %15

14:                                               ; preds = %3
  store i64 -1, ptr %4, align 8
  br label %44

15:                                               ; preds = %3
  call void @llvm.lifetime.start.p0(i64 8, ptr %8) #14
  call void @llvm.lifetime.start.p0(i64 8, ptr %9) #14
  %16 = load ptr, ptr %5, align 8, !tbaa !3
  %17 = call noundef i64 @_ZNK4base16BasicStringPieceINSt7__cxx1112basic_stringIcSt11char_traitsIcESaIcEEEE4sizeEv(ptr noundef nonnull align 8 dereferenceable(16) %16)
  %18 = sub i64 %17, 1
  store i64 %18, ptr %9, align 8, !tbaa !19
  %19 = call noundef nonnull align 8 dereferenceable(8) ptr @_ZSt3minImERKT_S2_S2_(ptr noundef nonnull align 8 dereferenceable(8) %7, ptr noundef nonnull align 8 dereferenceable(8) %9)
  %20 = load i64, ptr %19, align 8, !tbaa !19
  call void @llvm.lifetime.end.p0(i64 8, ptr %9) #14
  store i64 %20, ptr %8, align 8, !tbaa !19
  br label %21

21:                                               ; preds = %38, %15
  %22 = load ptr, ptr %5, align 8, !tbaa !3
  %23 = call noundef ptr @_ZNK4base16BasicStringPieceINSt7__cxx1112basic_stringIcSt11char_traitsIcESaIcEEEE4dataEv(ptr noundef nonnull align 8 dereferenceable(16) %22)
  %24 = load i64, ptr %8, align 8, !tbaa !19
  %25 = getelementptr inbounds nuw i8, ptr %23, i64 %24
  %26 = load i8, ptr %25, align 1, !tbaa !25
  %27 = sext i8 %26 to i32
  %28 = load i8, ptr %6, align 1, !tbaa !25
  %29 = sext i8 %28 to i32
  %30 = icmp ne i32 %27, %29
  br i1 %30, label %31, label %33

31:                                               ; preds = %21
  %32 = load i64, ptr %8, align 8, !tbaa !19
  store i64 %32, ptr %4, align 8
  store i32 1, ptr %10, align 4
  br label %41

33:                                               ; preds = %21
  %34 = load i64, ptr %8, align 8, !tbaa !19
  %35 = icmp eq i64 %34, 0
  br i1 %35, label %36, label %37

36:                                               ; preds = %33
  store i32 2, ptr %10, align 4
  br label %41

37:                                               ; preds = %33
  br label %38

38:                                               ; preds = %37
  %39 = load i64, ptr %8, align 8, !tbaa !19
  %40 = add i64 %39, -1
  store i64 %40, ptr %8, align 8, !tbaa !19
  br label %21, !llvm.loop !87

41:                                               ; preds = %36, %31
  call void @llvm.lifetime.end.p0(i64 8, ptr %8) #14
  %42 = load i32, ptr %10, align 4
  switch i32 %42, label %46 [
    i32 1, label %44
    i32 2, label %43
  ]

43:                                               ; preds = %41
  store i64 -1, ptr %4, align 8
  br label %44

44:                                               ; preds = %43, %41, %14
  %45 = load i64, ptr %4, align 8
  ret i64 %45

46:                                               ; preds = %41
  unreachable
}

; Function Attrs: mustprogress uwtable
define noundef i64 @_ZN4base8internal16find_last_not_ofERKNS_16BasicStringPieceINSt7__cxx1112basic_stringIcSt11char_traitsIcESaIcEEEEEcm(ptr noundef nonnull align 8 dereferenceable(16) %0, i8 noundef signext %1, i64 noundef %2) #1 {
  %4 = alloca ptr, align 8
  %5 = alloca i8, align 1
  %6 = alloca i64, align 8
  store ptr %0, ptr %4, align 8, !tbaa !3
  store i8 %1, ptr %5, align 1, !tbaa !25
  store i64 %2, ptr %6, align 8, !tbaa !19
  %7 = load ptr, ptr %4, align 8, !tbaa !3
  %8 = load i8, ptr %5, align 1, !tbaa !25
  %9 = load i64, ptr %6, align 8, !tbaa !19
  %10 = call noundef i64 @_ZN4base8internal17find_last_not_ofTINSt7__cxx1112basic_stringIcSt11char_traitsIcESaIcEEEEEmRKNS_16BasicStringPieceIT_EENS9_10value_typeEm(ptr noundef nonnull align 8 dereferenceable(16) %7, i8 noundef signext %8, i64 noundef %9)
  ret i64 %10
}